target datalayout = "e-m:e-p270:32:32-p271:32:32-p272:64:64-i64:64-i128:128-f80:128-n8:16:32:64-S128"
target triple = "x86_64-pc-linux-gnu"

%struct.H5S_sel_iter_op_t = type { i32, %union.anon }
%union.anon = type { %struct.H5S_sel_iter_app_op_t }
%struct.H5S_sel_iter_app_op_t = type { ptr, i64 }
%struct.H5T_vlen_alloc_info_t = type { ptr, ptr, ptr, ptr }

@H5T_init_g = external global i8, align 1
@H5_libterm_g = external global i8, align 1
@.str = private unnamed_addr constant [101 x i8] c"generated/home/dtcxzyw/WorkSpace/Projects/compilers/llvm-opt-benchmark/bench/hdf5/hdf5/src/H5Tconv.c\00", align 1
@__func__.H5T_reclaim = private unnamed_addr constant [12 x i8] c"H5T_reclaim\00", align 1
@H5E_DATATYPE_g = external global i64, align 8
@H5E_CANTGET_g = external global i64, align 8
@.str.1 = private unnamed_addr constant [38 x i8] c"unable to retrieve VL allocation info\00", align 1

; Function Attrs: nounwind uwtable
define i32 @H5T_reclaim(ptr noundef %0, ptr noundef %1, ptr noundef %2) #0 {
  %4 = alloca ptr, align 8
  %5 = alloca ptr, align 8
  %6 = alloca ptr, align 8
  %7 = alloca %struct.H5S_sel_iter_op_t, align 8
  %8 = alloca %struct.H5T_vlen_alloc_info_t, align 8
  %9 = alloca i32, align 4
  %10 = alloca i8, align 1
  store ptr %0, ptr %4, align 8, !tbaa !3
  store ptr %1, ptr %5, align 8, !tbaa !8
  store ptr %2, ptr %6, align 8, !tbaa !10
  call void @llvm.lifetime.start.p0(i64 24, ptr %7) #4
  call void @llvm.lifetime.start.p0(i64 32, ptr %8) #4
  call void @llvm.lifetime.start.p0(i64 4, ptr %9) #4
  store i32 -1, ptr %9, align 4, !tbaa !11
  call void @llvm.lifetime.start.p0(i64 1, ptr %10) #4
  store i8 0, ptr %10, align 1, !tbaa !13
  %11 = load i8, ptr @H5T_init_g, align 1, !tbaa !13, !range !15, !noundef !16
  %12 = trunc i8 %11 to i1
  br i1 %12, label %17, label %13

13:                                               ; preds = %3
  %14 = load i8, ptr @H5_libterm_g, align 1, !tbaa !13, !range !15, !noundef !16
  %15 = trunc i8 %14 to i1
  %16 = xor i1 %15, true
  br label %17

17:                                               ; preds = %13, %3
  %18 = phi i1 [ true, %3 ], [ %16, %13 ]
  %19 = xor i1 %18, true
  %20 = xor i1 %19, true
  %21 = zext i1 %20 to i32
  %22 = sext i32 %21 to i64
  %23 = call i64 @llvm.expect.i64(i64 %22, i64 1)
  %24 = icmp ne i64 %23, 0
  br i1 %24, label %25, label %55

25:                                               ; preds = %17
  %26 = call i32 @H5CX_get_vlen_alloc_info(ptr noundef %8)
  %27 = icmp slt i32 %26, 0
  br i1 %27, label %28, label %47

28:                                               ; preds = %25
  br label %29

29:                                               ; preds = %28
  br label %30

30:                                               ; preds = %29
  br label %31

31:                                               ; preds = %30
  %32 = load i64, ptr @H5E_DATATYPE_g, align 8, !tbaa !17
  %33 = load i64, ptr @H5E_CANTGET_g, align 8, !tbaa !17
  %34 = call i32 (ptr, ptr, i32, i64, i64, ptr, ...) @H5E_printf_stack(ptr noundef @.str, ptr noundef @__func__.H5T_reclaim, i32 noundef 94, i64 noundef %32, i64 noundef %33, ptr noundef @.str.1)
  br label %35

35:                                               ; preds = %31
  br label %36

36:                                               ; preds = %35
  store i8 1, ptr %10, align 1, !tbaa !13
  %37 = load i8, ptr %10, align 1, !tbaa !13, !range !15, !noundef !16
  %38 = trunc i8 %37 to i1
  %39 = zext i1 %38 to i8
  store i8 %39, ptr %10, align 1, !tbaa !13
  br label %40

40:                                               ; preds = %36
  br label %41

41:                                               ; preds = %40
  br label %42

42:                                               ; preds = %41
  store i32 -1, ptr %9, align 4, !tbaa !11
  br label %54

43:                                               ; No predecessors!
  br label %44

44:                                               ; preds = %43
  br label %45

45:                                               ; preds = %44
  br label %46

46:                                               ; preds = %45
  br label %47

47:                                               ; preds = %46, %25
  %48 = getelementptr inbounds nuw %struct.H5S_sel_iter_op_t, ptr %7, i32 0, i32 0
  store i32 1, ptr %48, align 8, !tbaa !19
  %49 = getelementptr inbounds nuw %struct.H5S_sel_iter_op_t, ptr %7, i32 0, i32 1
  store ptr @H5T_reclaim_cb, ptr %49, align 8, !tbaa !21
  %50 = load ptr, ptr %6, align 8, !tbaa !10
  %51 = load ptr, ptr %4, align 8, !tbaa !3
  %52 = load ptr, ptr %5, align 8, !tbaa !8
  %53 = call i32 @H5S_select_iterate(ptr noundef %50, ptr noundef %51, ptr noundef %52, ptr noundef %7, ptr noundef %8)
  store i32 %53, ptr %9, align 4, !tbaa !11
  br label %54

54:                                               ; preds = %47, %42
  br label %55

55:                                               ; preds = %54, %17
  %56 = load i32, ptr %9, align 4, !tbaa !11
  call void @llvm.lifetime.end.p0(i64 1, ptr %10) #4
  call void @llvm.lifetime.end.p0(i64 4, ptr %9) #4
  call void @llvm.lifetime.end.p0(i64 32, ptr %8) #4
  call void @llvm.lifetime.end.p0(i64 24, ptr %7) #4
  ret i32 %56
}