; Function Attrs: nounwind uwtable
define i32 @H5T_reclaim(ptr noundef %0, ptr noundef %1, ptr noundef %2) local_unnamed_addr #0 {
  %4 = alloca %struct.H5S_sel_iter_op_t, align 8
  %5 = alloca %struct.H5T_vlen_alloc_info_t, align 8
  call void @llvm.lifetime.start.p0(i64 24, ptr nonnull %4) #5
  call void @llvm.lifetime.start.p0(i64 32, ptr nonnull %5) #5
  %6 = load i8, ptr @H5T_init_g, align 1, !tbaa !3, !range !7, !noundef !8
  %7 = trunc nuw i8 %6 to i1
  %8 = load i8, ptr @H5_libterm_g, align 1, !range !7
  %9 = trunc nuw i8 %8 to i1
  %10 = xor i1 %9, true
  %11 = select i1 %7, i1 true, i1 %10
  br i1 %11, label %12, label %22, !prof !9

12:                                               ; preds = %3
  %13 = call i32 @H5CX_get_vlen_alloc_info(ptr noundef nonnull %5) #5
  %14 = icmp slt i32 %13, 0
  br i1 %14, label %15, label %19

15:                                               ; preds = %12
  %16 = load i64, ptr @H5E_DATATYPE_g, align 8, !tbaa !10
  %17 = load i64, ptr @H5E_CANTGET_g, align 8, !tbaa !10
  %18 = call i32 (ptr, ptr, i32, i64, i64, ptr, ...) @H5E_printf_stack(ptr noundef nonnull @.str, ptr noundef nonnull @__func__.H5T_reclaim, i32 noundef 94, i64 noundef %16, i64 noundef %17, ptr noundef nonnull @.str.1) #5
  br label %22

19:                                               ; preds = %12
  store i32 1, ptr %4, align 8, !tbaa !12
  %20 = getelementptr inbounds nuw i8, ptr %4, i64 8
  store ptr @H5T_reclaim_cb, ptr %20, align 8, !tbaa !15
  %21 = call i32 @H5S_select_iterate(ptr noundef %2, ptr noundef %0, ptr noundef %1, ptr noundef nonnull %4, ptr noundef nonnull %5) #5
  br label %22

22:                                               ; preds = %15, %19, %3
  %.0 = phi i32 [ -1, %15 ], [ %21, %19 ], [ -1, %3 ]
  call void @llvm.lifetime.end.p0(i64 32, ptr nonnull %5) #5
  call void @llvm.lifetime.end.p0(i64 24, ptr nonnull %4) #5
  ret i32 %.0
}